; ModuleID = 'source-C-CXX/24/1051.cpp'
source_filename = "source-C-CXX/24/1051.cpp"
target datalayout = "e-m:e-p270:32:32-p271:32:32-p272:64:64-i64:64-f80:128-n8:16:32:64-S128"
target triple = "x86_64-pc-linux-gnu"

%"class.std::ios_base::Init" = type { i8 }
%"class.std::basic_istream" = type { i32 (...)**, i64, %"class.std::basic_ios" }
%"class.std::basic_ios" = type { %"class.std::ios_base", %"class.std::basic_ostream"*, i8, i8, %"class.std::basic_streambuf"*, %"class.std::ctype"*, %"class.std::num_put"*, %"class.std::num_get"* }
%"class.std::ios_base" = type { i32 (...)**, i64, i64, i32, i32, i32, %"struct.std::ios_base::_Callback_list"*, %"struct.std::ios_base::_Words", [8 x %"struct.std::ios_base::_Words"], i32, %"struct.std::ios_base::_Words"*, %"class.std::locale" }
%"struct.std::ios_base::_Callback_list" = type { %"struct.std::ios_base::_Callback_list"*, void (i32, %"class.std::ios_base"*, i32)*, i32, i32 }
%"struct.std::ios_base::_Words" = type { i8*, i64 }
%"class.std::locale" = type { %"class.std::locale::_Impl"* }
%"class.std::locale::_Impl" = type { i32, %"class.std::locale::facet"**, i64, %"class.std::locale::facet"**, i8** }
%"class.std::locale::facet" = type <{ i32 (...)**, i32, [4 x i8] }>
%"class.std::basic_ostream" = type { i32 (...)**, %"class.std::basic_ios" }
%"class.std::basic_streambuf" = type { i32 (...)**, i8*, i8*, i8*, i8*, i8*, i8*, %"class.std::locale" }
%"class.std::ctype" = type <{ %"class.std::locale::facet.base", [4 x i8], %struct.__locale_struct*, i8, [7 x i8], i32*, i32*, i16*, i8, [256 x i8], [256 x i8], i8, [6 x i8] }>
%"class.std::locale::facet.base" = type <{ i32 (...)**, i32 }>
%struct.__locale_struct = type { [13 x %struct.__locale_data*], i16*, i32*, i32*, [13 x i8*] }
%struct.__locale_data = type opaque
%"class.std::num_put" = type { %"class.std::locale::facet.base", [4 x i8] }
%"class.std::num_get" = type { %"class.std::locale::facet.base", [4 x i8] }

@_ZStL8__ioinit = internal global %"class.std::ios_base::Init" zeroinitializer, align 1
@__dso_handle = external hidden global i8
@_ZSt3cin = external global %"class.std::basic_istream", align 8
@_ZSt4cout = external global %"class.std::basic_ostream", align 8
@llvm.global_ctors = appending global [1 x { i32, void ()*, i8* }] [{ i32, void ()*, i8* } { i32 65535, void ()* @_GLOBAL__sub_I_1051.cpp, i8* null }]

declare void @_ZNSt8ios_base4InitC1Ev(%"class.std::ios_base::Init"* nonnull align 1 dereferenceable(1)) unnamed_addr #0

; Function Attrs: nounwind
declare void @_ZNSt8ios_base4InitD1Ev(%"class.std::ios_base::Init"* nonnull align 1 dereferenceable(1)) unnamed_addr #1

; Function Attrs: nofree nounwind
declare i32 @__cxa_atexit(void (i8*)*, i8*, i8*) local_unnamed_addr #2

; Function Attrs: mustprogress norecurse sspstrong uwtable
define dso_local i32 @main() local_unnamed_addr #3 {
  %1 = alloca i32, align 4
  %2 = alloca [100 x i32], align 16
  %3 = bitcast i32* %1 to i8*
  call void @llvm.lifetime.start.p0i8(i64 4, i8* nonnull %3) #9
  %4 = bitcast [100 x i32]* %2 to i8*
  call void @llvm.lifetime.start.p0i8(i64 400, i8* nonnull %4) #9
  call void @llvm.memset.p0i8.i64(i8* noundef nonnull align 16 dereferenceable(400) %4, i8 0, i64 400, i1 false)
  %5 = call nonnull align 8 dereferenceable(16) %"class.std::basic_istream"* @_ZNSirsERi(%"class.std::basic_istream"* nonnull align 8 dereferenceable(16) @_ZSt3cin, i32* nonnull align 4 dereferenceable(4) %1)
  %6 = getelementptr inbounds [100 x i32], [100 x i32]* %2, i64 0, i64 0
  store i32 1, i32* %6, align 16, !tbaa !5
  %7 = load i32, i32* %1, align 4, !tbaa !5
  %8 = icmp eq i32 %7, 0
  br i1 %8, label %75, label %9

9:                                                ; preds = %0, %98
  %10 = phi i32 [ %12, %98 ], [ %7, %0 ]
  %11 = phi i32 [ %104, %98 ], [ 1, %0 ]
  %12 = add nsw i32 %10, -1
  %13 = call i32 @llvm.umax.i32(i32 %11, i32 1)
  %14 = zext i32 %13 to i64
  %15 = icmp ult i32 %13, 8
  br i1 %15, label %68, label %16

16:                                               ; preds = %9
  %17 = and i64 %14, 2147483640
  %18 = add nsw i64 %17, -8
  %19 = lshr exact i64 %18, 3
  %20 = add nuw nsw i64 %19, 1
  %21 = and i64 %20, 1
  %22 = icmp eq i64 %18, 0
  br i1 %22, label %52, label %23

23:                                               ; preds = %16
  %24 = and i64 %20, 4611686018427387902
  br label %25

25:                                               ; preds = %25, %23
  %26 = phi i64 [ 0, %23 ], [ %49, %25 ]
  %27 = phi i64 [ %24, %23 ], [ %50, %25 ]
  %28 = getelementptr inbounds [100 x i32], [100 x i32]* %2, i64 0, i64 %26
  %29 = bitcast i32* %28 to <4 x i32>*
  %30 = load <4 x i32>, <4 x i32>* %29, align 16, !tbaa !5
  %31 = getelementptr inbounds i32, i32* %28, i64 4
  %32 = bitcast i32* %31 to <4 x i32>*
  %33 = load <4 x i32>, <4 x i32>* %32, align 16, !tbaa !5
  %34 = shl nsw <4 x i32> %30, <i32 1, i32 1, i32 1, i32 1>
  %35 = shl nsw <4 x i32> %33, <i32 1, i32 1, i32 1, i32 1>
  %36 = bitcast i32* %28 to <4 x i32>*
  store <4 x i32> %34, <4 x i32>* %36, align 16, !tbaa !5
  %37 = bitcast i32* %31 to <4 x i32>*
  store <4 x i32> %35, <4 x i32>* %37, align 16, !tbaa !5
  %38 = or i64 %26, 8
  %39 = getelementptr inbounds [100 x i32], [100 x i32]* %2, i64 0, i64 %38
  %40 = bitcast i32* %39 to <4 x i32>*
  %41 = load <4 x i32>, <4 x i32>* %40, align 16, !tbaa !5
  %42 = getelementptr inbounds i32, i32* %39, i64 4
  %43 = bitcast i32* %42 to <4 x i32>*
  %44 = load <4 x i32>, <4 x i32>* %43, align 16, !tbaa !5
  %45 = shl nsw <4 x i32> %41, <i32 1, i32 1, i32 1, i32 1>
  %46 = shl nsw <4 x i32> %44, <i32 1, i32 1, i32 1, i32 1>
  %47 = bitcast i32* %39 to <4 x i32>*
  store <4 x i32> %45, <4 x i32>* %47, align 16, !tbaa !5
  %48 = bitcast i32* %42 to <4 x i32>*
  store <4 x i32> %46, <4 x i32>* %48, align 16, !tbaa !5
  %49 = add nuw i64 %26, 16
  %50 = add i64 %27, -2
  %51 = icmp eq i64 %50, 0
  br i1 %51, label %52, label %25, !llvm.loop !9

52:                                               ; preds = %25, %16
  %53 = phi i64 [ 0, %16 ], [ %49, %25 ]
  %54 = icmp eq i64 %21, 0
  br i1 %54, label %66, label %55

55:                                               ; preds = %52
  %56 = getelementptr inbounds [100 x i32], [100 x i32]* %2, i64 0, i64 %53
  %57 = bitcast i32* %56 to <4 x i32>*
  %58 = load <4 x i32>, <4 x i32>* %57, align 16, !tbaa !5
  %59 = getelementptr inbounds i32, i32* %56, i64 4
  %60 = bitcast i32* %59 to <4 x i32>*
  %61 = load <4 x i32>, <4 x i32>* %60, align 16, !tbaa !5
  %62 = shl nsw <4 x i32> %58, <i32 1, i32 1, i32 1, i32 1>
  %63 = shl nsw <4 x i32> %61, <i32 1, i32 1, i32 1, i32 1>
  %64 = bitcast i32* %56 to <4 x i32>*
  store <4 x i32> %62, <4 x i32>* %64, align 16, !tbaa !5
  %65 = bitcast i32* %59 to <4 x i32>*
  store <4 x i32> %63, <4 x i32>* %65, align 16, !tbaa !5
  br label %66

66:                                               ; preds = %52, %55
  %67 = icmp eq i64 %17, %14
  br i1 %67, label %70, label %68

68:                                               ; preds = %9, %66
  %69 = phi i64 [ 0, %9 ], [ %17, %66 ]
  br label %78

70:                                               ; preds = %78, %66
  %71 = and i64 %14, 1
  %72 = icmp ult i32 %11, 2
  br i1 %72, label %85, label %73

73:                                               ; preds = %70
  %74 = and i64 %14, 2147483646
  br label %106

75:                                               ; preds = %98, %0
  %76 = phi i32 [ 1, %0 ], [ %104, %98 ]
  store i32 -1, i32* %1, align 4, !tbaa !5
  %77 = zext i32 %76 to i64
  br label %151

78:                                               ; preds = %68, %78
  %79 = phi i64 [ %83, %78 ], [ %69, %68 ]
  %80 = getelementptr inbounds [100 x i32], [100 x i32]* %2, i64 0, i64 %79
  %81 = load i32, i32* %80, align 4, !tbaa !5
  %82 = shl nsw i32 %81, 1
  store i32 %82, i32* %80, align 4, !tbaa !5
  %83 = add nuw nsw i64 %79, 1
  %84 = icmp eq i64 %83, %14
  br i1 %84, label %70, label %78, !llvm.loop !12

85:                                               ; preds = %167, %70
  %86 = phi i64 [ 0, %70 ], [ %122, %167 ]
  %87 = icmp eq i64 %71, 0
  br i1 %87, label %98, label %88

88:                                               ; preds = %85
  %89 = getelementptr inbounds [100 x i32], [100 x i32]* %2, i64 0, i64 %86
  %90 = load i32, i32* %89, align 4, !tbaa !5
  %91 = icmp sgt i32 %90, 9
  br i1 %91, label %92, label %98

92:                                               ; preds = %88
  %93 = add nuw nsw i64 %86, 1
  %94 = getelementptr inbounds [100 x i32], [100 x i32]* %2, i64 0, i64 %93
  %95 = load i32, i32* %94, align 4, !tbaa !5
  %96 = add nsw i32 %95, 1
  store i32 %96, i32* %94, align 4, !tbaa !5
  %97 = add nsw i32 %90, -10
  store i32 %97, i32* %89, align 4, !tbaa !5
  br label %98

98:                                               ; preds = %92, %88, %85
  %99 = zext i32 %11 to i64
  %100 = getelementptr inbounds [100 x i32], [100 x i32]* %2, i64 0, i64 %99
  %101 = load i32, i32* %100, align 4, !tbaa !5
  %102 = icmp ne i32 %101, 0
  %103 = zext i1 %102 to i32
  %104 = add nuw nsw i32 %11, %103
  %105 = icmp eq i32 %12, 0
  br i1 %105, label %75, label %9, !llvm.loop !14

106:                                              ; preds = %167, %73
  %107 = phi i64 [ 0, %73 ], [ %122, %167 ]
  %108 = phi i64 [ %74, %73 ], [ %168, %167 ]
  %109 = getelementptr inbounds [100 x i32], [100 x i32]* %2, i64 0, i64 %107
  %110 = load i32, i32* %109, align 8, !tbaa !5
  %111 = icmp sgt i32 %110, 9
  %112 = or i64 %107, 1
  br i1 %111, label %113, label %118

113:                                              ; preds = %106
  %114 = getelementptr inbounds [100 x i32], [100 x i32]* %2, i64 0, i64 %112
  %115 = load i32, i32* %114, align 4, !tbaa !5
  %116 = add nsw i32 %115, 1
  store i32 %116, i32* %114, align 4, !tbaa !5
  %117 = add nsw i32 %110, -10
  store i32 %117, i32* %109, align 8, !tbaa !5
  br label %118

118:                                              ; preds = %106, %113
  %119 = getelementptr inbounds [100 x i32], [100 x i32]* %2, i64 0, i64 %112
  %120 = load i32, i32* %119, align 4, !tbaa !5
  %121 = icmp sgt i32 %120, 9
  %122 = add nuw nsw i64 %107, 2
  br i1 %121, label %162, label %167

123:                                              ; preds = %151
  %124 = load i8*, i8** bitcast (%"class.std::basic_ostream"* @_ZSt4cout to i8**), align 8, !tbaa !15
  %125 = getelementptr i8, i8* %124, i64 -24
  %126 = bitcast i8* %125 to i64*
  %127 = load i64, i64* %126, align 8
  %128 = add nsw i64 %127, 240
  %129 = getelementptr inbounds i8, i8* bitcast (%"class.std::basic_ostream"* @_ZSt4cout to i8*), i64 %128
  %130 = bitcast i8* %129 to %"class.std::ctype"**
  %131 = load %"class.std::ctype"*, %"class.std::ctype"** %130, align 8, !tbaa !17
  %132 = icmp eq %"class.std::ctype"* %131, null
  br i1 %132, label %133, label %134

133:                                              ; preds = %123
  call void @_ZSt16__throw_bad_castv() #10
  unreachable

134:                                              ; preds = %123
  %135 = getelementptr inbounds %"class.std::ctype", %"class.std::ctype"* %131, i64 0, i32 8
  %136 = load i8, i8* %135, align 8, !tbaa !21
  %137 = icmp eq i8 %136, 0
  br i1 %137, label %141, label %138

138:                                              ; preds = %134
  %139 = getelementptr inbounds %"class.std::ctype", %"class.std::ctype"* %131, i64 0, i32 9, i64 10
  %140 = load i8, i8* %139, align 1, !tbaa !23
  br label %147

141:                                              ; preds = %134
  call void @_ZNKSt5ctypeIcE13_M_widen_initEv(%"class.std::ctype"* nonnull align 8 dereferenceable(570) %131)
  %142 = bitcast %"class.std::ctype"* %131 to i8 (%"class.std::ctype"*, i8)***
  %143 = load i8 (%"class.std::ctype"*, i8)**, i8 (%"class.std::ctype"*, i8)*** %142, align 8, !tbaa !15
  %144 = getelementptr inbounds i8 (%"class.std::ctype"*, i8)*, i8 (%"class.std::ctype"*, i8)** %143, i64 6
  %145 = load i8 (%"class.std::ctype"*, i8)*, i8 (%"class.std::ctype"*, i8)** %144, align 8
  %146 = call signext i8 %145(%"class.std::ctype"* nonnull align 8 dereferenceable(570) %131, i8 signext 10)
  br label %147

147:                                              ; preds = %138, %141
  %148 = phi i8 [ %140, %138 ], [ %146, %141 ]
  %149 = call nonnull align 8 dereferenceable(8) %"class.std::basic_ostream"* @_ZNSo3putEc(%"class.std::basic_ostream"* nonnull align 8 dereferenceable(8) @_ZSt4cout, i8 signext %148)
  %150 = call nonnull align 8 dereferenceable(8) %"class.std::basic_ostream"* @_ZNSo5flushEv(%"class.std::basic_ostream"* nonnull align 8 dereferenceable(8) %149)
  call void @llvm.lifetime.end.p0i8(i64 400, i8* nonnull %4) #9
  call void @llvm.lifetime.end.p0i8(i64 4, i8* nonnull %3) #9
  ret i32 0

151:                                              ; preds = %75, %151
  %152 = phi i64 [ %77, %75 ], [ %161, %151 ]
  %153 = phi i32 [ %76, %75 ], [ %154, %151 ]
  %154 = add nsw i32 %153, -1
  %155 = zext i32 %154 to i64
  %156 = getelementptr inbounds [100 x i32], [100 x i32]* %2, i64 0, i64 %155
  %157 = load i32, i32* %156, align 4, !tbaa !5
  %158 = call nonnull align 8 dereferenceable(8) %"class.std::basic_ostream"* @_ZNSolsEi(%"class.std::basic_ostream"* nonnull align 8 dereferenceable(8) @_ZSt4cout, i32 %157)
  %159 = trunc i64 %152 to i32
  %160 = icmp sgt i32 %159, 1
  %161 = add nsw i64 %152, -1
  br i1 %160, label %151, label %123, !llvm.loop !24

162:                                              ; preds = %118
  %163 = getelementptr inbounds [100 x i32], [100 x i32]* %2, i64 0, i64 %122
  %164 = load i32, i32* %163, align 8, !tbaa !5
  %165 = add nsw i32 %164, 1
  store i32 %165, i32* %163, align 8, !tbaa !5
  %166 = add nsw i32 %120, -10
  store i32 %166, i32* %119, align 4, !tbaa !5
  br label %167

167:                                              ; preds = %162, %118
  %168 = add i64 %108, -2
  %169 = icmp eq i64 %168, 0
  br i1 %169, label %85, label %106, !llvm.loop !25
}

; Function Attrs: argmemonly mustprogress nofree nosync nounwind willreturn
declare void @llvm.lifetime.start.p0i8(i64 immarg, i8* nocapture) #4

; Function Attrs: argmemonly mustprogress nofree nounwind willreturn writeonly
declare void @llvm.memset.p0i8.i64(i8* nocapture writeonly, i8, i64, i1 immarg) #5

declare nonnull align 8 dereferenceable(16) %"class.std::basic_istream"* @_ZNSirsERi(%"class.std::basic_istream"* nonnull align 8 dereferenceable(16), i32* nonnull align 4 dereferenceable(4)) local_unnamed_addr #0

; Function Attrs: argmemonly mustprogress nofree nosync nounwind willreturn
declare void @llvm.lifetime.end.p0i8(i64 immarg, i8* nocapture) #4

declare nonnull align 8 dereferenceable(8) %"class.std::basic_ostream"* @_ZNSolsEi(%"class.std::basic_ostream"* nonnull align 8 dereferenceable(8), i32) local_unnamed_addr #0

declare nonnull align 8 dereferenceable(8) %"class.std::basic_ostream"* @_ZNSo3putEc(%"class.std::basic_ostream"* nonnull align 8 dereferenceable(8), i8 signext) local_unnamed_addr #0

declare nonnull align 8 dereferenceable(8) %"class.std::basic_ostream"* @_ZNSo5flushEv(%"class.std::basic_ostream"* nonnull align 8 dereferenceable(8)) local_unnamed_addr #0

; Function Attrs: noreturn
declare void @_ZSt16__throw_bad_castv() local_unnamed_addr #6

declare void @_ZNKSt5ctypeIcE13_M_widen_initEv(%"class.std::ctype"* nonnull align 8 dereferenceable(570)) local_unnamed_addr #0

; Function Attrs: sspstrong uwtable
define internal void @_GLOBAL__sub_I_1051.cpp() #7 section ".text.startup" {
  tail call void @_ZNSt8ios_base4InitC1Ev(%"class.std::ios_base::Init"* nonnull align 1 dereferenceable(1) @_ZStL8__ioinit)
  %1 = tail call i32 @__cxa_atexit(void (i8*)* bitcast (void (%"class.std::ios_base::Init"*)* @_ZNSt8ios_base4InitD1Ev to void (i8*)*), i8* getelementptr inbounds (%"class.std::ios_base::Init", %"class.std::ios_base::Init"* @_ZStL8__ioinit, i64 0, i32 0), i8* nonnull @__dso_handle) #9
  ret void
}

; Function Attrs: nofree nosync nounwind readnone speculatable willreturn
declare i32 @llvm.umax.i32(i32, i32) #8


!llvm.module.flags = !{!0, !1, !2, !3}
!llvm.ident = !{!4}

!0 = !{i32 1, !"wchar_size", i32 4}
!1 = !{i32 7, !"PIC Level", i32 2}
!2 = !{i32 7, !"PIE Level", i32 2}
!3 = !{i32 7, !"uwtable", i32 1}
!4 = !{!"clang version 13.0.0"}
!5 = !{!6, !6, i64 0}
!6 = !{!"int", !7, i64 0}
!7 = !{!"omnipotent char", !8, i64 0}
!8 = !{!"Simple C++ TBAA"}
!9 = distinct !{!9, !10, !11}
!10 = !{!"llvm.loop.mustprogress"}
!11 = !{!"llvm.loop.isvectorized", i32 1}
!12 = distinct !{!12, !10, !13, !11}
!13 = !{!"llvm.loop.unroll.runtime.disable"}
!14 = distinct !{!14, !10}
!15 = !{!16, !16, i64 0}
!16 = !{!"vtable pointer", !8, i64 0}
!17 = !{!18, !19, i64 240}
!18 = !{!"_ZTSSt9basic_iosIcSt11char_traitsIcEE", !19, i64 216, !7, i64 224, !20, i64 225, !19, i64 232, !19, i64 240, !19, i64 248, !19, i64 256}
!19 = !{!"any pointer", !7, i64 0}
!20 = !{!"bool", !7, i64 0}
!21 = !{!22, !7, i64 56}
!22 = !{!"_ZTSSt5ctypeIcE", !19, i64 16, !20, i64 24, !19, i64 32, !19, i64 40, !19, i64 48, !7, i64 56, !7, i64 57, !7, i64 313, !7, i64 569}
!23 = !{!7, !7, i64 0}
!24 = distinct !{!24, !10}
!25 = distinct !{!25, !10}
